; Function Attrs: mustprogress uwtable
define hidden noundef ptr @_ZN19arith_rewriter_core8mk_powerEP4exprRK8rationalP4sort(ptr noundef nonnull align 8 dereferenceable(35) %this, ptr noundef nonnull %x, ptr noundef nonnull align 8 dereferenceable(32) %r, ptr nocapture noundef readonly %s) local_unnamed_addr #3 align 2 {
entry:
  %m_util = getelementptr inbounds i8, ptr %this, i64 8
  %call.i = tail call noundef ptr @_ZNK4expr8get_sortEv(ptr noundef nonnull align 4 dereferenceable(16) %x)
  %m_info.i.i.i.i.i = getelementptr inbounds i8, ptr %call.i, i64 24
  %0 = load ptr, ptr %m_info.i.i.i.i.i, align 8
  %cmp.i.i.i.i.i = icmp eq ptr %0, null
  br i1 %cmp.i.i.i.i.i, label %_ZNK17arith_recognizers6is_intEPK4expr.exit, label %_ZNK4decl13get_family_idEv.exit.thread.i.i.i.i

_ZNK4decl13get_family_idEv.exit.thread.i.i.i.i:   ; preds = %entry
  %1 = load i32, ptr %0, align 8
  %cmp6.i.i.i.i = icmp eq i32 %1, 5
  br i1 %cmp6.i.i.i.i, label %cond.false.i3.i.i.i.i, label %_ZNK17arith_recognizers6is_intEPK4expr.exit

cond.false.i3.i.i.i.i:                            ; preds = %_ZNK4decl13get_family_idEv.exit.thread.i.i.i.i
  %m_kind.i.i.i.i.i.i = getelementptr inbounds i8, ptr %0, i64 4
  %2 = load i32, ptr %m_kind.i.i.i.i.i.i, align 4
  %cmp3.i.i.i.i = icmp eq i32 %2, 1
  br label %_ZNK17arith_recognizers6is_intEPK4expr.exit

_ZNK17arith_recognizers6is_intEPK4expr.exit:      ; preds = %entry, %_ZNK4decl13get_family_idEv.exit.thread.i.i.i.i, %cond.false.i3.i.i.i.i
  %3 = phi i1 [ %cmp3.i.i.i.i, %cond.false.i3.i.i.i.i ], [ false, %_ZNK4decl13get_family_idEv.exit.thread.i.i.i.i ], [ false, %entry ]
  %m_plugin.i.i = getelementptr inbounds i8, ptr %this, i64 16
  %4 = load ptr, ptr %m_plugin.i.i, align 8
  %tobool.not.i.i = icmp eq ptr %4, null
  br i1 %tobool.not.i.i, label %if.then.i.i, label %_ZNK10arith_util10mk_numeralERK8rationalb.exit

if.then.i.i:                                      ; preds = %_ZNK17arith_recognizers6is_intEPK4expr.exit
  tail call void @_ZN10arith_util11init_pluginEv(ptr noundef nonnull align 8 dereferenceable(16) %m_util)
  %.pre.i.i = load ptr, ptr %m_plugin.i.i, align 8
  br label %_ZNK10arith_util10mk_numeralERK8rationalb.exit

_ZNK10arith_util10mk_numeralERK8rationalb.exit:   ; preds = %_ZNK17arith_recognizers6is_intEPK4expr.exit, %if.then.i.i
  %5 = phi ptr [ %.pre.i.i, %if.then.i.i ], [ %4, %_ZNK17arith_recognizers6is_intEPK4expr.exit ]
  %call2.i = tail call noundef ptr @_ZN17arith_decl_plugin10mk_numeralERK8rationalb(ptr noundef nonnull align 8 dereferenceable(441) %5, ptr noundef nonnull align 8 dereferenceable(32) %r, i1 noundef zeroext %3)
  %6 = load ptr, ptr %m_util, align 8
  %call.i3 = tail call noundef ptr @_ZN11ast_manager6mk_appEiiP4exprS1_(ptr noundef nonnull align 8 dereferenceable(976) %6, i32 noundef 5, i32 noundef 22, ptr noundef nonnull %x, ptr noundef %call2.i)
  %m_info.i.i.i.i = getelementptr inbounds i8, ptr %s, i64 24
  %7 = load ptr, ptr %m_info.i.i.i.i, align 8
  %cmp.i.i.i.i = icmp eq ptr %7, null
  br i1 %cmp.i.i.i.i, label %if.end, label %_ZNK4decl13get_family_idEv.exit.thread.i.i.i

_ZNK4decl13get_family_idEv.exit.thread.i.i.i:     ; preds = %_ZNK10arith_util10mk_numeralERK8rationalb.exit
  %8 = load i32, ptr %7, align 8
  %cmp6.i.i.i = icmp eq i32 %8, 5
  br i1 %cmp6.i.i.i, label %_ZNK17arith_recognizers6is_intEPK4sort.exit, label %if.end

_ZNK17arith_recognizers6is_intEPK4sort.exit:      ; preds = %_ZNK4decl13get_family_idEv.exit.thread.i.i.i
  %m_kind.i.i.i.i.i = getelementptr inbounds i8, ptr %7, i64 4
  %9 = load i32, ptr %m_kind.i.i.i.i.i, align 4
  %cmp3.i.i.i = icmp eq i32 %9, 1
  br i1 %cmp3.i.i.i, label %if.then, label %if.end

if.then:                                          ; preds = %_ZNK17arith_recognizers6is_intEPK4sort.exit
  %10 = load ptr, ptr %m_util, align 8
  %call.i4 = tail call noundef ptr @_ZN11ast_manager6mk_appEiiP4expr(ptr noundef nonnull align 8 dereferenceable(976) %10, i32 noundef 5, i32 noundef 19, ptr noundef %call.i3)
  br label %if.end

if.end:                                           ; preds = %_ZNK10arith_util10mk_numeralERK8rationalb.exit, %_ZNK4decl13get_family_idEv.exit.thread.i.i.i, %if.then, %_ZNK17arith_recognizers6is_intEPK4sort.exit
  %y.0 = phi ptr [ %call.i4, %if.then ], [ %call.i3, %_ZNK17arith_recognizers6is_intEPK4sort.exit ], [ %call.i3, %_ZNK4decl13get_family_idEv.exit.thread.i.i.i ], [ %call.i3, %_ZNK10arith_util10mk_numeralERK8rationalb.exit ]
  ret ptr %y.0
}